#include <math.h>
#include <stdio.h>
#include <stdlib.h>
#include <string.h>

int main(){
	int n,a,b,c,d,e,f,i,j;
    char sz[1000][500];
	scanf("%d",&n);
	for(i=0;i<n;i++){
		scanf("%s",sz[i]);
		for(j=0;j<strlen(sz[i]);j++){
			if(sz[i][j]=='A'){
				printf("T");
			}else if(sz[i][j]=='G'){
				printf("C");
			}else if(sz[i][j]=='T'){
				printf("A");
			}else if(sz[i][j]=='C'){
				printf("G");
			}	
		}
		printf("\n");
	}

	return 0;
}
